; Function Attrs: mustprogress uwtable
define void @_ZNK6icu_756number21SimpleNumberFormatter6formatENS0_12SimpleNumberER10UErrorCode(ptr noalias nocapture writeonly sret(%"class.icu_75::number::FormattedNumber") align 8 %agg.result, ptr nocapture noundef nonnull readonly align 8 dereferenceable(32) %this, ptr nocapture noundef %value, ptr noundef nonnull align 4 dereferenceable(4) %status) local_unnamed_addr #1 align 2 {
entry:
  %0 = load ptr, ptr %value, align 8
  %fSign = getelementptr inbounds i8, ptr %value, i64 8
  %1 = load i32, ptr %fSign, align 8
  %2 = load i32, ptr %status, align 4
  %cmp.i.i = icmp slt i32 %2, 1
  br i1 %cmp.i.i, label %if.end.i, label %return

if.end.i:                                         ; preds = %entry
  %cmp.i = icmp eq ptr %0, null
  br i1 %cmp.i, label %if.then2.i, label %if.end3.i

if.then2.i:                                       ; preds = %if.end.i
  store i32 1, ptr %status, align 4
  br label %return

if.end3.i:                                        ; preds = %if.end.i
  %fPatternModifier.i = getelementptr inbounds i8, ptr %this, i64 24
  %3 = load ptr, ptr %fPatternModifier.i, align 8
  %cmp4.i = icmp eq ptr %3, null
  br i1 %cmp4.i, label %if.then6.i, label %lor.lhs.false.i

lor.lhs.false.i:                                  ; preds = %if.end3.i
  %fMicros.i = getelementptr inbounds i8, ptr %this, i64 16
  %4 = load ptr, ptr %fMicros.i, align 8
  %cmp5.i = icmp eq ptr %4, null
  br i1 %cmp5.i, label %if.then6.i, label %_ZNK6icu_756number21SimpleNumberFormatter10formatImplEPNS0_4impl20UFormattedNumberDataE17USimpleNumberSignR10UErrorCode.exit

if.then6.i:                                       ; preds = %lor.lhs.false.i, %if.end3.i
  store i32 27, ptr %status, align 4
  br label %return

_ZNK6icu_756number21SimpleNumberFormatter10formatImplEPNS0_4impl20UFormattedNumberDataE17USimpleNumberSignR10UErrorCode.exit: ; preds = %lor.lhs.false.i
  %switch.selectcmp.i = icmp eq i32 %1, 0
  %switch.select.i = select i1 %switch.selectcmp.i, i64 3, i64 2
  %switch.selectcmp12.i = icmp eq i32 %1, 2
  %switch.select13.i = select i1 %switch.selectcmp12.i, i64 0, i64 %switch.select.i
  %mods.i.i = getelementptr inbounds i8, ptr %3, i64 8
  %arrayidx.i.i = getelementptr inbounds [4 x ptr], ptr %mods.i.i, i64 0, i64 %switch.select13.i
  %5 = load ptr, ptr %arrayidx.i.i, align 8
  %quantity.i = getelementptr inbounds i8, ptr %0, i64 304
  %fString.i.i = getelementptr inbounds i8, ptr %0, i64 8
  %call19.i = tail call noundef i32 @_ZN6icu_756number4impl19NumberFormatterImpl11writeNumberERKNS1_16SimpleMicroPropsERNS1_15DecimalQuantityERNS_22FormattedStringBuilderEiR10UErrorCode(ptr noundef nonnull align 8 dereferenceable(96) %4, ptr noundef nonnull align 8 dereferenceable(66) %quantity.i, ptr noundef nonnull align 8 dereferenceable(136) %fString.i.i, i32 noundef 0, ptr noundef nonnull align 4 dereferenceable(4) %status)
  %vtable.i = load ptr, ptr %5, align 8
  %vfn.i = getelementptr inbounds i8, ptr %vtable.i, i64 16
  %6 = load ptr, ptr %vfn.i, align 8
  %call21.i = tail call noundef i32 %6(ptr noundef nonnull align 8 dereferenceable(8) %5, ptr noundef nonnull align 8 dereferenceable(136) %fString.i.i, i32 noundef 0, i32 noundef %call19.i, ptr noundef nonnull align 4 dereferenceable(4) %status)
  tail call void @_ZN6icu_7522FormattedStringBuilder15writeTerminatorER10UErrorCode(ptr noundef nonnull align 8 dereferenceable(136) %fString.i.i, ptr noundef nonnull align 4 dereferenceable(4) %status)
  %.pre = load i32, ptr %status, align 4
  %cmp.i3 = icmp sgt i32 %.pre, 0
  br i1 %cmp.i3, label %return, label %if.then

if.then:                                          ; preds = %_ZNK6icu_756number21SimpleNumberFormatter10formatImplEPNS0_4impl20UFormattedNumberDataE17USimpleNumberSignR10UErrorCode.exit
  %7 = load ptr, ptr %value, align 8
  store ptr null, ptr %value, align 8
  br label %return

return:                                           ; preds = %if.then6.i, %if.then2.i, %entry, %_ZNK6icu_756number21SimpleNumberFormatter10formatImplEPNS0_4impl20UFormattedNumberDataE17USimpleNumberSignR10UErrorCode.exit, %if.then
  %.sink6 = phi ptr [ %7, %if.then ], [ null, %_ZNK6icu_756number21SimpleNumberFormatter10formatImplEPNS0_4impl20UFormattedNumberDataE17USimpleNumberSignR10UErrorCode.exit ], [ null, %entry ], [ null, %if.then2.i ], [ null, %if.then6.i ]
  %.sink = phi i32 [ 0, %if.then ], [ %.pre, %_ZNK6icu_756number21SimpleNumberFormatter10formatImplEPNS0_4impl20UFormattedNumberDataE17USimpleNumberSignR10UErrorCode.exit ], [ %2, %entry ], [ 1, %if.then2.i ], [ 27, %if.then6.i ]
  store ptr getelementptr inbounds ({ [8 x ptr] }, ptr @_ZTVN6icu_756number15FormattedNumberE, i64 0, i32 0, i64 2), ptr %agg.result, align 8
  %8 = getelementptr inbounds i8, ptr %agg.result, i64 8
  store ptr %.sink6, ptr %8, align 8
  %9 = getelementptr inbounds i8, ptr %agg.result, i64 16
  store i32 %.sink, ptr %9, align 8
  ret void
}